(iTheory.CrossSection
CrossSection
p0
(dp1
S'data'
p2
(dp3
S'lhefile'
p4
S'/tmp/tmpulYaor/fort_8.68'
p5
sS'Wdic'
p6
(dp7
S'7 TeV (LO)'
p8
(dp9
(I1000022
I2000003
tp10
ccopy_reg
_reconstructor
p11
(cunum
Unum
p12
c__builtin__
object
p13
Ntp14
Rp15
(F0.005353571428571429
(dp16
S'fb'
p17
I1
sI00
tp18
bs(I-2000002
I1000002
tp19
g11
(g12
g13
Ntp20
Rp21
(F0.007495
g16
I00
tp22
bs(I-1000003
I1000022
tp23
g11
(g12
g13
Ntp24
Rp25
(F0.007495000000000001
g16
I00
tp26
bs(I1000022
I2000004
tp27
g11
(g12
g13
Ntp28
Rp29
(F0.0097435
g16
I00
tp30
bs(I-1000001
I1000022
tp31
g11
(g12
g13
Ntp32
Rp33
(F0.004282857142857143
g16
I00
tp34
bs(I1000002
I1000022
tp35
g11
(g12
g13
Ntp36
Rp37
(F0.00617235294117647
g16
I00
tp38
bs(I-1000001
I2000002
tp39
g11
(g12
g13
Ntp40
Rp41
(F0.007495
g16
I00
tp42
bs(I-2000003
I2000003
tp43
g11
(g12
g13
Ntp44
Rp45
(F0.007742556947608201
g16
I00
tp46
bs(I1000001
I1000002
tp47
g11
(g12
g13
Ntp48
Rp49
(F0.00936875
g16
I00
tp50
bs(I-2000004
I1000022
tp51
g11
(g12
g13
Ntp52
Rp53
(F0.0049966666666666675
g16
I00
tp54
bs(I-2000002
I1000022
tp55
g11
(g12
g13
Ntp56
Rp57
(F0.007762678571428572
g16
I00
tp58
bs(I2000002
I2000002
tp59
g11
(g12
g13
Ntp60
Rp61
(F0.0059960000000000005
g16
I00
tp62
bs(I1000005
I1000022
tp63
g11
(g12
g13
Ntp64
Rp65
(F0.01499
g16
I00
tp66
bs(I1000002
I1000002
tp67
g11
(g12
g13
Ntp68
Rp69
(F0.01499
g16
I00
tp70
bs(I1000022
I2000001
tp71
g11
(g12
g13
Ntp72
Rp73
(F0.009829508196721312
g16
I00
tp74
bs(I-2000005
I2000005
tp75
g11
(g12
g13
Ntp76
Rp77
(F0.007162627494456763
g16
I00
tp78
bs(I-1000001
I-1000001
tp79
g11
(g12
g13
Ntp80
Rp81
(F0.0
g16
I00
tp82
bs(I-1000001
I2000001
tp83
g11
(g12
g13
Ntp84
Rp85
(F0.007495
g16
I00
tp86
bs(I2000001
I2000002
tp87
g11
(g12
g13
Ntp88
Rp89
(F0.014990000000000002
g16
I00
tp90
bs(I-2000002
I2000002
tp91
g11
(g12
g13
Ntp92
Rp93
(F0.0069543770491803285
g16
I00
tp94
bs(I-1000002
I1000002
tp95
g11
(g12
g13
Ntp96
Rp97
(F0.007503318534961155
g16
I00
tp98
bs(I-2000003
I1000022
tp99
g11
(g12
g13
Ntp100
Rp101
(F0.0037475
g16
I00
tp102
bs(I-2000001
I1000022
tp103
g11
(g12
g13
Ntp104
Rp105
(F0.00936875
g16
I00
tp106
bs(I1000022
I2000002
tp107
g11
(g12
g13
Ntp108
Rp109
(F0.008313231441048036
g16
I00
tp110
bs(I-1000005
I1000005
tp111
g11
(g12
g13
Ntp112
Rp113
(F0.007215930851063829
g16
I00
tp114
bs(I2000001
I2000001
tp115
g11
(g12
g13
Ntp116
Rp117
(F0.0
g16
I00
tp118
bs(I-1000002
I2000002
tp119
g11
(g12
g13
Ntp120
Rp121
(F0.0
g16
I00
tp122
bs(I-1000004
I1000004
tp123
g11
(g12
g13
Ntp124
Rp125
(F0.007639461451247166
g16
I00
tp126
bs(I1000001
I1000022
tp127
g11
(g12
g13
Ntp128
Rp129
(F0.008565714285714286
g16
I00
tp130
bs(I1000003
I1000022
tp131
g11
(g12
g13
Ntp132
Rp133
(F0.01499
g16
I00
tp134
bs(I1000022
I1000022
tp135
g11
(g12
g13
Ntp136
Rp137
(F0.0117109375
g16
I00
tp138
bs(I-1000003
I1000003
tp139
g11
(g12
g13
Ntp140
Rp141
(F0.0076977867965367965
g16
I00
tp142
bs(I-2000004
I2000004
tp143
g11
(g12
g13
Ntp144
Rp145
(F0.007445906113537118
g16
I00
tp146
bs(I-1000002
I1000022
tp147
g11
(g12
g13
Ntp148
Rp149
(F0.0
g16
I00
tp150
bs(I-2000003
I1000002
tp151
g11
(g12
g13
Ntp152
Rp153
(F0.0037475
g16
I00
tp154
bs(I-1000001
I1000001
tp155
g11
(g12
g13
Ntp156
Rp157
(F0.007304097452934662
g16
I00
tp158
bs(I2000002
I2000004
tp159
g11
(g12
g13
Ntp160
Rp161
(F0.0
g16
I00
tp162
bs(I-2000005
I1000022
tp163
g11
(g12
g13
Ntp164
Rp165
(F0.0
g16
I00
tp166
bs(I-2000001
I2000001
tp167
g11
(g12
g13
Ntp168
Rp169
(F0.007405385869565218
g16
I00
tp170
bssS'8 TeV (LO)'
p171
(dp172
(I1000022
I2000003
tp173
g11
(g12
g13
Ntp174
Rp175
(F0.014330000000000002
(dp176
g17
I1
sI00
tp177
bs(I-2000002
I1000002
tp178
g11
(g12
g13
Ntp179
Rp180
(F0.01433
g176
I00
tp181
bs(I-1000003
I1000022
tp182
g11
(g12
g13
Ntp183
Rp184
(F0.01433
g176
I00
tp185
bs(I1000022
I2000004
tp186
g11
(g12
g13
Ntp187
Rp188
(F0.01433
g176
I00
tp189
bs(I-1000001
I1000022
tp190
g11
(g12
g13
Ntp191
Rp192
(F0.014330000000000002
g176
I00
tp193
bs(I1000002
I1000022
tp194
g11
(g12
g13
Ntp195
Rp196
(F0.014330000000000002
g176
I00
tp197
bs(I-1000001
I2000002
tp198
g11
(g12
g13
Ntp199
Rp200
(F0.01433
g176
I00
tp201
bs(I-1000003
I1000003
tp202
g11
(g12
g13
Ntp203
Rp204
(F0.01433
g176
I00
tp205
bs(I2000001
I2000002
tp206
g11
(g12
g13
Ntp207
Rp208
(F0.01433
g176
I00
tp209
bs(I-2000004
I1000022
tp210
g11
(g12
g13
Ntp211
Rp212
(F0.01433
g176
I00
tp213
bs(I-2000002
I1000022
tp214
g11
(g12
g13
Ntp215
Rp216
(F0.014330000000000002
g176
I00
tp217
bs(I1000002
I1000002
tp218
g11
(g12
g13
Ntp219
Rp220
(F0.01433
g176
I00
tp221
bs(I1000005
I1000022
tp222
g11
(g12
g13
Ntp223
Rp224
(F0.01433
g176
I00
tp225
bs(I1000022
I2000001
tp226
g11
(g12
g13
Ntp227
Rp228
(F0.014330000000000002
g176
I00
tp229
bs(I-2000005
I2000005
tp230
g11
(g12
g13
Ntp231
Rp232
(F0.01433
g176
I00
tp233
bsg79
g11
(g12
g13
Ntp234
Rp235
(F0.01433
g176
I00
tp236
bs(I-1000001
I2000001
tp237
g11
(g12
g13
Ntp238
Rp239
(F0.01433
g176
I00
tp240
bs(I1000001
I1000002
tp241
g11
(g12
g13
Ntp242
Rp243
(F0.01433
g176
I00
tp244
bs(I-2000002
I2000002
tp245
g11
(g12
g13
Ntp246
Rp247
(F0.01433
g176
I00
tp248
bs(I-1000002
I1000002
tp249
g11
(g12
g13
Ntp250
Rp251
(F0.014330000000000002
g176
I00
tp252
bs(I-2000003
I1000022
tp253
g11
(g12
g13
Ntp254
Rp255
(F0.01433
g176
I00
tp256
bs(I-2000001
I1000022
tp257
g11
(g12
g13
Ntp258
Rp259
(F0.01433
g176
I00
tp260
bs(I1000022
I2000002
tp261
g11
(g12
g13
Ntp262
Rp263
(F0.01433
g176
I00
tp264
bs(I-1000005
I1000005
tp265
g11
(g12
g13
Ntp266
Rp267
(F0.01433
g176
I00
tp268
bs(I2000002
I2000002
tp269
g11
(g12
g13
Ntp270
Rp271
(F0.01433
g176
I00
tp272
bsg115
g11
(g12
g13
Ntp273
Rp274
(F0.01433
g176
I00
tp275
bsg119
g11
(g12
g13
Ntp276
Rp277
(F0.01433
g176
I00
tp278
bs(I-1000004
I1000004
tp279
g11
(g12
g13
Ntp280
Rp281
(F0.01433
g176
I00
tp282
bs(I1000001
I1000022
tp283
g11
(g12
g13
Ntp284
Rp285
(F0.01433
g176
I00
tp286
bs(I1000003
I1000022
tp287
g11
(g12
g13
Ntp288
Rp289
(F0.01433
g176
I00
tp290
bs(I1000022
I1000022
tp291
g11
(g12
g13
Ntp292
Rp293
(F0.01433
g176
I00
tp294
bs(I-2000004
I2000004
tp295
g11
(g12
g13
Ntp296
Rp297
(F0.014330000000000002
g176
I00
tp298
bsg147
g11
(g12
g13
Ntp299
Rp300
(F0.01433
g176
I00
tp301
bs(I-2000003
I1000002
tp302
g11
(g12
g13
Ntp303
Rp304
(F0.01433
g176
I00
tp305
bs(I-2000003
I2000003
tp306
g11
(g12
g13
Ntp307
Rp308
(F0.01433
g176
I00
tp309
bs(I-1000001
I1000001
tp310
g11
(g12
g13
Ntp311
Rp312
(F0.01433
g176
I00
tp313
bsg159
g11
(g12
g13
Ntp314
Rp315
(F0.01433
g176
I00
tp316
bsg163
g11
(g12
g13
Ntp317
Rp318
(F0.01433
g176
I00
tp319
bs(I-2000001
I2000001
tp320
g11
(g12
g13
Ntp321
Rp322
(F0.01433
g176
I00
tp323
bssS'7 TeV (NLL)'
p324
(dp325
g10
g11
(g12
g13
Ntp326
Rp327
(F0.005353571428571429
(dp328
g17
I1
sI00
tp329
bsg19
g11
(g12
g13
Ntp330
Rp331
(F0.014143065000000002
g328
I00
tp332
bsg23
g11
(g12
g13
Ntp333
Rp334
(F0.007495000000000001
g328
I00
tp335
bsg27
g11
(g12
g13
Ntp336
Rp337
(F0.0097435
g328
I00
tp338
bsg31
g11
(g12
g13
Ntp339
Rp340
(F0.004282857142857143
g328
I00
tp341
bsg35
g11
(g12
g13
Ntp342
Rp343
(F0.00617235294117647
g328
I00
tp344
bsg39
g11
(g12
g13
Ntp345
Rp346
(F0.014143065000000002
g328
I00
tp347
bsg43
g11
(g12
g13
Ntp348
Rp349
(F0.014610204960136678
g328
I00
tp350
bsg47
g11
(g12
g13
Ntp351
Rp352
(F0.00936875
g328
I00
tp353
bsg51
g11
(g12
g13
Ntp354
Rp355
(F0.0049966666666666675
g328
I00
tp356
bsg55
g11
(g12
g13
Ntp357
Rp358
(F0.007762678571428572
g328
I00
tp359
bsg59
g11
(g12
g13
Ntp360
Rp361
(F0.0059960000000000005
g328
I00
tp362
bsg63
g11
(g12
g13
Ntp363
Rp364
(F0.01499
g328
I00
tp365
bsg67
g11
(g12
g13
Ntp366
Rp367
(F0.01499
g328
I00
tp368
bsg71
g11
(g12
g13
Ntp369
Rp370
(F0.009829508196721312
g328
I00
tp371
bsg75
g11
(g12
g13
Ntp372
Rp373
(F0.013988611496674061
g328
I00
tp374
bsg79
g11
(g12
g13
Ntp375
Rp376
(F0.0
g328
I00
tp377
bsg83
g11
(g12
g13
Ntp378
Rp379
(F0.014143065000000002
g328
I00
tp380
bsg87
g11
(g12
g13
Ntp381
Rp382
(F0.014990000000000002
g328
I00
tp383
bsg91
g11
(g12
g13
Ntp384
Rp385
(F0.01312290949180328
g328
I00
tp386
bsg95
g11
(g12
g13
Ntp387
Rp388
(F0.014158762075471702
g328
I00
tp389
bsg99
g11
(g12
g13
Ntp390
Rp391
(F0.0037475
g328
I00
tp392
bsg103
g11
(g12
g13
Ntp393
Rp394
(F0.00936875
g328
I00
tp395
bsg107
g11
(g12
g13
Ntp396
Rp397
(F0.008313231441048036
g328
I00
tp398
bsg111
g11
(g12
g13
Ntp399
Rp400
(F0.014092712952127662
g328
I00
tp401
bsg115
g11
(g12
g13
Ntp402
Rp403
(F0.0
g328
I00
tp404
bsg119
g11
(g12
g13
Ntp405
Rp406
(F0.0
g328
I00
tp407
bsg123
g11
(g12
g13
Ntp408
Rp409
(F0.014415663758503403
g328
I00
tp410
bsg127
g11
(g12
g13
Ntp411
Rp412
(F0.008565714285714286
g328
I00
tp413
bsg131
g11
(g12
g13
Ntp414
Rp415
(F0.01499
g328
I00
tp416
bsg135
g11
(g12
g13
Ntp417
Rp418
(F0.0117109375
g328
I00
tp419
bsg139
g11
(g12
g13
Ntp420
Rp421
(F0.014525723685064936
g328
I00
tp422
bsg143
g11
(g12
g13
Ntp423
Rp424
(F0.014050424836244543
g328
I00
tp425
bsg147
g11
(g12
g13
Ntp426
Rp427
(F0.0
g328
I00
tp428
bsg151
g11
(g12
g13
Ntp429
Rp430
(F0.007071532500000001
g328
I00
tp431
bsg155
g11
(g12
g13
Ntp432
Rp433
(F0.013782831893687708
g328
I00
tp434
bsg159
g11
(g12
g13
Ntp435
Rp436
(F0.0
g328
I00
tp437
bsg163
g11
(g12
g13
Ntp438
Rp439
(F0.0
g328
I00
tp440
bsg167
g11
(g12
g13
Ntp441
Rp442
(F0.013973963135869568
g328
I00
tp443
bssS'8 TeV (NLL)'
p444
(dp445
g173
g11
(g12
g13
Ntp446
Rp447
(F0.014330000000000002
(dp448
g17
I1
sI00
tp449
bsg178
g11
(g12
g13
Ntp450
Rp451
(F0.02630988
g448
I00
tp452
bsg182
g11
(g12
g13
Ntp453
Rp454
(F0.01433
g448
I00
tp455
bsg186
g11
(g12
g13
Ntp456
Rp457
(F0.01433
g448
I00
tp458
bsg190
g11
(g12
g13
Ntp459
Rp460
(F0.014330000000000002
g448
I00
tp461
bsg194
g11
(g12
g13
Ntp462
Rp463
(F0.014330000000000002
g448
I00
tp464
bsg198
g11
(g12
g13
Ntp465
Rp466
(F0.02630988
g448
I00
tp467
bsg202
g11
(g12
g13
Ntp468
Rp469
(F0.02630988
g448
I00
tp470
bsg206
g11
(g12
g13
Ntp471
Rp472
(F0.01433
g448
I00
tp473
bsg210
g11
(g12
g13
Ntp474
Rp475
(F0.01433
g448
I00
tp476
bsg214
g11
(g12
g13
Ntp477
Rp478
(F0.014330000000000002
g448
I00
tp479
bsg218
g11
(g12
g13
Ntp480
Rp481
(F0.01433
g448
I00
tp482
bsg222
g11
(g12
g13
Ntp483
Rp484
(F0.01433
g448
I00
tp485
bsg226
g11
(g12
g13
Ntp486
Rp487
(F0.014330000000000002
g448
I00
tp488
bsg230
g11
(g12
g13
Ntp489
Rp490
(F0.026933235000000003
g448
I00
tp491
bsg79
g11
(g12
g13
Ntp492
Rp493
(F0.01433
g448
I00
tp494
bsg237
g11
(g12
g13
Ntp495
Rp496
(F0.02630988
g448
I00
tp497
bsg241
g11
(g12
g13
Ntp498
Rp499
(F0.01433
g448
I00
tp500
bsg245
g11
(g12
g13
Ntp501
Rp502
(F0.02630988
g448
I00
tp503
bsg249
g11
(g12
g13
Ntp504
Rp505
(F0.026309880000000004
g448
I00
tp506
bsg253
g11
(g12
g13
Ntp507
Rp508
(F0.01433
g448
I00
tp509
bsg257
g11
(g12
g13
Ntp510
Rp511
(F0.01433
g448
I00
tp512
bsg261
g11
(g12
g13
Ntp513
Rp514
(F0.01433
g448
I00
tp515
bsg265
g11
(g12
g13
Ntp516
Rp517
(F0.026933235000000003
g448
I00
tp518
bsg269
g11
(g12
g13
Ntp519
Rp520
(F0.01433
g448
I00
tp521
bsg115
g11
(g12
g13
Ntp522
Rp523
(F0.01433
g448
I00
tp524
bsg119
g11
(g12
g13
Ntp525
Rp526
(F0.02630988
g448
I00
tp527
bsg279
g11
(g12
g13
Ntp528
Rp529
(F0.02630988
g448
I00
tp530
bsg283
g11
(g12
g13
Ntp531
Rp532
(F0.01433
g448
I00
tp533
bsg287
g11
(g12
g13
Ntp534
Rp535
(F0.01433
g448
I00
tp536
bsg291
g11
(g12
g13
Ntp537
Rp538
(F0.01433
g448
I00
tp539
bsg295
g11
(g12
g13
Ntp540
Rp541
(F0.026309880000000004
g448
I00
tp542
bsg147
g11
(g12
g13
Ntp543
Rp544
(F0.01433
g448
I00
tp545
bsg302
g11
(g12
g13
Ntp546
Rp547
(F0.02630988
g448
I00
tp548
bsg306
g11
(g12
g13
Ntp549
Rp550
(F0.02630988
g448
I00
tp551
bsg310
g11
(g12
g13
Ntp552
Rp553
(F0.02630988
g448
I00
tp554
bsg159
g11
(g12
g13
Ntp555
Rp556
(F0.01433
g448
I00
tp557
bsg163
g11
(g12
g13
Ntp558
Rp559
(F0.01433
g448
I00
tp560
bsg320
g11
(g12
g13
Ntp561
Rp562
(F0.02630988
g448
I00
tp563
bsssS'Xsecdic'
p564
(dp565
g8
(dp566
g10
g11
(g12
g13
Ntp567
Rp568
(F0.037475
(dp569
g17
I1
sI00
tp570
bsg19
g11
(g12
g13
Ntp571
Rp572
(F0.007495
g569
I00
tp573
bsg23
g11
(g12
g13
Ntp574
Rp575
(F0.022485
g569
I00
tp576
bsg27
g11
(g12
g13
Ntp577
Rp578
(F0.09743500000000001
g569
I00
tp579
bsg31
g11
(g12
g13
Ntp580
Rp581
(F0.02998
g569
I00
tp582
bsg35
g11
(g12
g13
Ntp583
Rp584
(F0.10493
g569
I00
tp585
bsg39
g11
(g12
g13
Ntp586
Rp587
(F0.007495
g569
I00
tp588
bsg43
g11
(g12
g13
Ntp589
Rp590
(F6.7979650000000005
g569
I00
tp591
bsg47
g11
(g12
g13
Ntp592
Rp593
(F0.037475
g569
I00
tp594
bsg51
g11
(g12
g13
Ntp595
Rp596
(F0.04497
g569
I00
tp597
bsg55
g11
(g12
g13
Ntp598
Rp599
(F0.21735500000000002
g569
I00
tp600
bsg59
g11
(g12
g13
Ntp601
Rp602
(F0.02998
g569
I00
tp603
bsg63
g11
(g12
g13
Ntp604
Rp605
(F0.01499
g569
I00
tp606
bsg67
g11
(g12
g13
Ntp607
Rp608
(F0.01499
g569
I00
tp609
bsg71
g11
(g12
g13
Ntp610
Rp611
(F0.5996
g569
I00
tp612
bsg75
g11
(g12
g13
Ntp613
Rp614
(F6.4606900000000005
g569
I00
tp615
bsg79
g11
(g12
g13
Ntp616
Rp617
(F0.0
g569
I00
tp618
bsg83
g11
(g12
g13
Ntp619
Rp620
(F0.007495
g569
I00
tp621
bsg87
g11
(g12
g13
Ntp622
Rp623
(F0.04497
g569
I00
tp624
bsg91
g11
(g12
g13
Ntp625
Rp626
(F6.3632550000000005
g569
I00
tp627
bsg95
g11
(g12
g13
Ntp628
Rp629
(F6.760490000000001
g569
I00
tp630
bsg99
g11
(g12
g13
Ntp631
Rp632
(F0.01499
g569
I00
tp633
bsg103
g11
(g12
g13
Ntp634
Rp635
(F0.07495
g569
I00
tp636
bsg107
g11
(g12
g13
Ntp637
Rp638
(F5.71119
g569
I00
tp639
bsg111
g11
(g12
g13
Ntp640
Rp641
(F6.782975
g569
I00
tp642
bsg115
g11
(g12
g13
Ntp643
Rp644
(F0.0
g569
I00
tp645
bsg119
g11
(g12
g13
Ntp646
Rp647
(F0.0
g569
I00
tp648
bsg123
g11
(g12
g13
Ntp649
Rp650
(F6.738005
g569
I00
tp651
bsg127
g11
(g12
g13
Ntp652
Rp653
(F0.2998
g569
I00
tp654
bsg131
g11
(g12
g13
Ntp655
Rp656
(F0.01499
g569
I00
tp657
bsg135
g11
(g12
g13
Ntp658
Rp659
(F0.187375
g569
I00
tp660
bsg139
g11
(g12
g13
Ntp661
Rp662
(F7.112755
g569
I00
tp663
bsg143
g11
(g12
g13
Ntp664
Rp665
(F6.82045
g569
I00
tp666
bsg147
g11
(g12
g13
Ntp667
Rp668
(F0.0
g569
I00
tp669
bsg151
g11
(g12
g13
Ntp670
Rp671
(F0.007495
g569
I00
tp672
bsg155
g11
(g12
g13
Ntp673
Rp674
(F6.5956
g569
I00
tp675
bsg159
g11
(g12
g13
Ntp676
Rp677
(F0.0
g569
I00
tp678
bsg163
g11
(g12
g13
Ntp679
Rp680
(F0.0
g569
I00
tp681
bsg167
g11
(g12
g13
Ntp682
Rp683
(F6.8129550000000005
g569
I00
tp684
bssg171
(dp685
g173
g11
(g12
g13
Ntp686
Rp687
(F0.10031000000000001
(dp688
g17
I1
sI00
tp689
bsg178
g11
(g12
g13
Ntp690
Rp691
(F0.01433
g688
I00
tp692
bsg182
g11
(g12
g13
Ntp693
Rp694
(F0.04299
g688
I00
tp695
bsg186
g11
(g12
g13
Ntp696
Rp697
(F0.1433
g688
I00
tp698
bsg190
g11
(g12
g13
Ntp699
Rp700
(F0.10031000000000001
g688
I00
tp701
bsg194
g11
(g12
g13
Ntp702
Rp703
(F0.24361000000000005
g688
I00
tp704
bsg198
g11
(g12
g13
Ntp705
Rp706
(F0.01433
g688
I00
tp707
bsg202
g11
(g12
g13
Ntp708
Rp709
(F13.240920000000001
g688
I00
tp710
bsg206
g11
(g12
g13
Ntp711
Rp712
(F0.04299
g688
I00
tp713
bsg210
g11
(g12
g13
Ntp714
Rp715
(F0.12897
g688
I00
tp716
bsg214
g11
(g12
g13
Ntp717
Rp718
(F0.40124000000000004
g688
I00
tp719
bsg218
g11
(g12
g13
Ntp720
Rp721
(F0.01433
g688
I00
tp722
bsg222
g11
(g12
g13
Ntp723
Rp724
(F0.01433
g688
I00
tp725
bsg226
g11
(g12
g13
Ntp726
Rp727
(F0.8741300000000001
g688
I00
tp728
bsg230
g11
(g12
g13
Ntp729
Rp730
(F12.92566
g688
I00
tp731
bsg79
g11
(g12
g13
Ntp732
Rp733
(F0.01433
g688
I00
tp734
bsg237
g11
(g12
g13
Ntp735
Rp736
(F0.01433
g688
I00
tp737
bsg241
g11
(g12
g13
Ntp738
Rp739
(F0.05732
g688
I00
tp740
bsg245
g11
(g12
g13
Ntp741
Rp742
(F13.11195
g688
I00
tp743
bsg249
g11
(g12
g13
Ntp744
Rp745
(F12.911330000000001
g688
I00
tp746
bsg253
g11
(g12
g13
Ntp747
Rp748
(F0.05732
g688
I00
tp749
bsg257
g11
(g12
g13
Ntp750
Rp751
(F0.11464
g688
I00
tp752
bsg261
g11
(g12
g13
Ntp753
Rp754
(F9.844710000000001
g688
I00
tp755
bsg265
g11
(g12
g13
Ntp756
Rp757
(F13.4702
g688
I00
tp758
bsg269
g11
(g12
g13
Ntp759
Rp760
(F0.07165
g688
I00
tp761
bsg115
g11
(g12
g13
Ntp762
Rp763
(F0.01433
g688
I00
tp764
bsg119
g11
(g12
g13
Ntp765
Rp766
(F0.01433
g688
I00
tp767
bsg279
g11
(g12
g13
Ntp768
Rp769
(F12.63906
g688
I00
tp770
bsg283
g11
(g12
g13
Ntp771
Rp772
(F0.50155
g688
I00
tp773
bsg287
g11
(g12
g13
Ntp774
Rp775
(F0.01433
g688
I00
tp776
bsg291
g11
(g12
g13
Ntp777
Rp778
(F0.22928
g688
I00
tp779
bsg295
g11
(g12
g13
Ntp780
Rp781
(F13.126280000000001
g688
I00
tp782
bsg147
g11
(g12
g13
Ntp783
Rp784
(F0.01433
g688
I00
tp785
bsg302
g11
(g12
g13
Ntp786
Rp787
(F0.02866
g688
I00
tp788
bsg306
g11
(g12
g13
Ntp789
Rp790
(F12.581740000000002
g688
I00
tp791
bsg310
g11
(g12
g13
Ntp792
Rp793
(F12.939990000000002
g688
I00
tp794
bsg159
g11
(g12
g13
Ntp795
Rp796
(F0.01433
g688
I00
tp797
bsg163
g11
(g12
g13
Ntp798
Rp799
(F0.02866
g688
I00
tp800
bsg320
g11
(g12
g13
Ntp801
Rp802
(F13.1836
g688
I00
tp803
bssg324
(dp804
g10
g11
(g12
g13
Ntp805
Rp806
(F0.037475
(dp807
g17
I1
sI00
tp808
bsg19
g11
(g12
g13
Ntp809
Rp810
(F0.014143065000000002
g807
I00
tp811
bsg23
g11
(g12
g13
Ntp812
Rp813
(F0.022485
g807
I00
tp814
bsg27
g11
(g12
g13
Ntp815
Rp816
(F0.09743500000000001
g807
I00
tp817
bsg31
g11
(g12
g13
Ntp818
Rp819
(F0.02998
g807
I00
tp820
bsg35
g11
(g12
g13
Ntp821
Rp822
(F0.10493
g807
I00
tp823
bsg39
g11
(g12
g13
Ntp824
Rp825
(F0.014143065000000002
g807
I00
tp826
bsg43
g11
(g12
g13
Ntp827
Rp828
(F12.827759955000003
g807
I00
tp829
bsg47
g11
(g12
g13
Ntp830
Rp831
(F0.037475
g807
I00
tp832
bsg51
g11
(g12
g13
Ntp833
Rp834
(F0.04497
g807
I00
tp835
bsg55
g11
(g12
g13
Ntp836
Rp837
(F0.21735500000000002
g807
I00
tp838
bsg59
g11
(g12
g13
Ntp839
Rp840
(F0.02998
g807
I00
tp841
bsg63
g11
(g12
g13
Ntp842
Rp843
(F0.01499
g807
I00
tp844
bsg67
g11
(g12
g13
Ntp845
Rp846
(F0.01499
g807
I00
tp847
bsg71
g11
(g12
g13
Ntp848
Rp849
(F0.5996
g807
I00
tp850
bsg75
g11
(g12
g13
Ntp851
Rp852
(F12.617727570000003
g807
I00
tp853
bsg79
g11
(g12
g13
Ntp854
Rp855
(F0.0
g807
I00
tp856
bsg83
g11
(g12
g13
Ntp857
Rp858
(F0.014143065000000002
g807
I00
tp859
bsg87
g11
(g12
g13
Ntp860
Rp861
(F0.04497
g807
I00
tp862
bsg91
g11
(g12
g13
Ntp863
Rp864
(F12.007462185000003
g807
I00
tp865
bsg95
g11
(g12
g13
Ntp866
Rp867
(F12.757044630000003
g807
I00
tp868
bsg99
g11
(g12
g13
Ntp869
Rp870
(F0.01499
g807
I00
tp871
bsg103
g11
(g12
g13
Ntp872
Rp873
(F0.07495
g807
I00
tp874
bsg107
g11
(g12
g13
Ntp875
Rp876
(F5.71119
g807
I00
tp877
bsg111
g11
(g12
g13
Ntp878
Rp879
(F13.247150175000003
g807
I00
tp880
bsg115
g11
(g12
g13
Ntp881
Rp882
(F0.0
g807
I00
tp883
bsg119
g11
(g12
g13
Ntp884
Rp885
(F0.0
g807
I00
tp886
bsg123
g11
(g12
g13
Ntp887
Rp888
(F12.714615435000002
g807
I00
tp889
bsg127
g11
(g12
g13
Ntp890
Rp891
(F0.2998
g807
I00
tp892
bsg131
g11
(g12
g13
Ntp893
Rp894
(F0.01499
g807
I00
tp895
bsg135
g11
(g12
g13
Ntp896
Rp897
(F0.187375
g807
I00
tp898
bsg139
g11
(g12
g13
Ntp899
Rp900
(F13.421768685000002
g807
I00
tp901
bsg143
g11
(g12
g13
Ntp902
Rp903
(F12.870189150000002
g807
I00
tp904
bsg147
g11
(g12
g13
Ntp905
Rp906
(F0.0
g807
I00
tp907
bsg151
g11
(g12
g13
Ntp908
Rp909
(F0.014143065000000002
g807
I00
tp910
bsg155
g11
(g12
g13
Ntp911
Rp912
(F12.445897200000001
g807
I00
tp913
bsg159
g11
(g12
g13
Ntp914
Rp915
(F0.0
g807
I00
tp916
bsg163
g11
(g12
g13
Ntp917
Rp918
(F0.0
g807
I00
tp919
bsg167
g11
(g12
g13
Ntp920
Rp921
(F12.856046085000003
g807
I00
tp922
bssg444
(dp923
g173
g11
(g12
g13
Ntp924
Rp925
(F0.10031000000000001
(dp926
g17
I1
sI00
tp927
bsg178
g11
(g12
g13
Ntp928
Rp929
(F0.02630988
g926
I00
tp930
bsg182
g11
(g12
g13
Ntp931
Rp932
(F0.04299
g926
I00
tp933
bsg186
g11
(g12
g13
Ntp934
Rp935
(F0.1433
g926
I00
tp936
bsg190
g11
(g12
g13
Ntp937
Rp938
(F0.10031000000000001
g926
I00
tp939
bsg194
g11
(g12
g13
Ntp940
Rp941
(F0.24361000000000005
g926
I00
tp942
bsg198
g11
(g12
g13
Ntp943
Rp944
(F0.02630988
g926
I00
tp945
bsg202
g11
(g12
g13
Ntp946
Rp947
(F24.310329120000002
g926
I00
tp948
bsg206
g11
(g12
g13
Ntp949
Rp950
(F0.04299
g926
I00
tp951
bsg210
g11
(g12
g13
Ntp952
Rp953
(F0.12897
g926
I00
tp954
bsg214
g11
(g12
g13
Ntp955
Rp956
(F0.40124000000000004
g926
I00
tp957
bsg218
g11
(g12
g13
Ntp958
Rp959
(F0.01433
g926
I00
tp960
bsg222
g11
(g12
g13
Ntp961
Rp962
(F0.01433
g926
I00
tp963
bsg226
g11
(g12
g13
Ntp964
Rp965
(F0.8741300000000001
g926
I00
tp966
bsg230
g11
(g12
g13
Ntp967
Rp968
(F24.293777970000004
g926
I00
tp969
bsg79
g11
(g12
g13
Ntp970
Rp971
(F0.01433
g926
I00
tp972
bsg237
g11
(g12
g13
Ntp973
Rp974
(F0.02630988
g926
I00
tp975
bsg241
g11
(g12
g13
Ntp976
Rp977
(F0.05732
g926
I00
tp978
bsg245
g11
(g12
g13
Ntp979
Rp980
(F24.0735402
g926
I00
tp981
bsg249
g11
(g12
g13
Ntp982
Rp983
(F23.705201880000004
g926
I00
tp984
bsg253
g11
(g12
g13
Ntp985
Rp986
(F0.05732
g926
I00
tp987
bsg257
g11
(g12
g13
Ntp988
Rp989
(F0.11464
g926
I00
tp990
bsg261
g11
(g12
g13
Ntp991
Rp992
(F9.844710000000001
g926
I00
tp993
bsg265
g11
(g12
g13
Ntp994
Rp995
(F25.3172409
g926
I00
tp996
bsg269
g11
(g12
g13
Ntp997
Rp998
(F0.07165
g926
I00
tp999
bsg115
g11
(g12
g13
Ntp1000
Rp1001
(F0.01433
g926
I00
tp1002
bsg119
g11
(g12
g13
Ntp1003
Rp1004
(F0.02630988
g926
I00
tp1005
bsg279
g11
(g12
g13
Ntp1006
Rp1007
(F23.20531416
g926
I00
tp1008
bsg283
g11
(g12
g13
Ntp1009
Rp1010
(F0.50155
g926
I00
tp1011
bsg287
g11
(g12
g13
Ntp1012
Rp1013
(F0.01433
g926
I00
tp1014
bsg291
g11
(g12
g13
Ntp1015
Rp1016
(F0.22928
g926
I00
tp1017
bsg295
g11
(g12
g13
Ntp1018
Rp1019
(F24.099850080000003
g926
I00
tp1020
bsg147
g11
(g12
g13
Ntp1021
Rp1022
(F0.01433
g926
I00
tp1023
bsg302
g11
(g12
g13
Ntp1024
Rp1025
(F0.05261976
g926
I00
tp1026
bsg306
g11
(g12
g13
Ntp1027
Rp1028
(F23.100074640000003
g926
I00
tp1029
bsg310
g11
(g12
g13
Ntp1030
Rp1031
(F23.757821640000003
g926
I00
tp1032
bsg159
g11
(g12
g13
Ntp1033
Rp1034
(F0.01433
g926
I00
tp1035
bsg163
g11
(g12
g13
Ntp1036
Rp1037
(F0.02866
g926
I00
tp1038
bsg320
g11
(g12
g13
Ntp1039
Rp1040
(F24.2050896
g926
I00
tp1041
bsssS'XsecList'
p1042
(iTheory.CrossSection
XSecInfoList
p1043
(dp1044
S'xsecs'
p1045
(lp1046
(iTheory.CrossSection
SingleXSecInfo
p1047
(dp1048
S'sqrts'
p1049
g11
(g12
g13
Ntp1050
Rp1051
(F8.0
(dp1052
S'TeV'
p1053
I1
sI00
tp1054
bsS'order'
p1055
I0
sS'label'
p1056
g171
sba(iTheory.CrossSection
SingleXSecInfo
p1057
(dp1058
g1049
g11
(g12
g13
Ntp1059
Rp1060
(F8.0
g1052
I00
tp1061
bsg1055
I2
sg1056
g444
sba(iTheory.CrossSection
SingleXSecInfo
p1062
(dp1063
g1049
g11
(g12
g13
Ntp1064
Rp1065
(F7.0
g1052
I00
tp1066
bsg1055
I0
sg1056
g8
sba(iTheory.CrossSection
SingleXSecInfo
p1067
(dp1068
g1049
g11
(g12
g13
Ntp1069
Rp1070
(F7.0
g1052
I00
tp1071
bsg1055
I2
sg1056
g324
sbasbsS'lhefiles'
p1072
(dp1073
g8
S'/tmp/tmpulYaor/fort_7.68'
p1074
sg171
g5
sg324
g1074
sg444
g5
sssb.