(iTheory.CrossSection
CrossSection
p0
(dp1
S'data'
p2
(dp3
S'Xsecdic'
p4
(dp5
S'7 TeV (LO)'
p6
(dp7
(I-2000004
I2000004
tp8
ccopy_reg
_reconstructor
p9
(cunum
Unum
p10
c__builtin__
object
p11
Ntp12
Rp13
(F10.59
(dp14
S'fb'
p15
I1
sI00
tp16
bs(I1000001
I1000022
tp17
g9
(g10
g11
Ntp18
Rp19
(F0.0
g14
I00
tp20
bs(I1000022
I1000022
tp21
g9
(g10
g11
Ntp22
Rp23
(F921.33
g14
I00
tp24
bs(I-2000001
I2000001
tp25
g9
(g10
g11
Ntp26
Rp27
(F0.0
g14
I00
tp28
bs(I-1000002
I1000002
tp29
g9
(g10
g11
Ntp30
Rp31
(F10.59
g14
I00
tp32
bs(I1000022
I2000002
tp33
g9
(g10
g11
Ntp34
Rp35
(F21.18
g14
I00
tp36
bs(I-1000003
I1000003
tp37
g9
(g10
g11
Ntp38
Rp39
(F10.59
g14
I00
tp40
bs(I-2000003
I2000003
tp41
g9
(g10
g11
Ntp42
Rp43
(F21.18
g14
I00
tp44
bs(I-1000001
I1000001
tp45
g9
(g10
g11
Ntp46
Rp47
(F10.59
g14
I00
tp48
bs(I-2000005
I2000005
tp49
g9
(g10
g11
Ntp50
Rp51
(F21.18
g14
I00
tp52
bs(I-1000004
I1000004
tp53
g9
(g10
g11
Ntp54
Rp55
(F21.18
g14
I00
tp56
bssS'8 TeV (LO)'
p57
(dp58
(I-2000004
I2000004
tp59
g9
(g10
g11
Ntp60
Rp61
(F36.75
g14
I00
tp62
bsg17
g9
(g10
g11
Ntp63
Rp64
(F12.25
g14
I00
tp65
bs(I1000022
I1000022
tp66
g9
(g10
g11
Ntp67
Rp68
(F1041.25
g14
I00
tp69
bsg25
g9
(g10
g11
Ntp70
Rp71
(F12.25
g14
I00
tp72
bs(I-1000002
I1000002
tp73
g9
(g10
g11
Ntp74
Rp75
(F12.25
g14
I00
tp76
bs(I1000022
I2000002
tp77
g9
(g10
g11
Ntp78
Rp79
(F36.75
g14
I00
tp80
bs(I-1000003
I1000003
tp81
g9
(g10
g11
Ntp82
Rp83
(F12.25
g14
I00
tp84
bs(I-2000003
I2000003
tp85
g9
(g10
g11
Ntp86
Rp87
(F24.5
g14
I00
tp88
bs(I-1000001
I1000001
tp89
g9
(g10
g11
Ntp90
Rp91
(F12.25
g14
I00
tp92
bs(I-2000005
I2000005
tp93
g9
(g10
g11
Ntp94
Rp95
(F12.25
g14
I00
tp96
bs(I-1000004
I1000004
tp97
g9
(g10
g11
Ntp98
Rp99
(F12.25
g14
I00
tp100
bssS'7 TeV (NLL)'
p101
(dp102
g59
g9
(g10
g11
Ntp103
Rp104
(F19.983330000000002
g14
I00
tp105
bsg17
g9
(g10
g11
Ntp106
Rp107
(F0.0
g14
I00
tp108
bsg66
g9
(g10
g11
Ntp109
Rp110
(F921.33
g14
I00
tp111
bsg73
g9
(g10
g11
Ntp112
Rp113
(F19.983330000000002
g14
I00
tp114
bsg77
g9
(g10
g11
Ntp115
Rp116
(F21.18
g14
I00
tp117
bsg97
g9
(g10
g11
Ntp118
Rp119
(F39.966660000000005
g14
I00
tp120
bsg81
g9
(g10
g11
Ntp121
Rp122
(F19.983330000000002
g14
I00
tp123
bsg85
g9
(g10
g11
Ntp124
Rp125
(F39.966660000000005
g14
I00
tp126
bsg89
g9
(g10
g11
Ntp127
Rp128
(F19.983330000000002
g14
I00
tp129
bsg93
g9
(g10
g11
Ntp130
Rp131
(F41.364540000000005
g14
I00
tp132
bsg25
g9
(g10
g11
Ntp133
Rp134
(F0.0
g14
I00
tp135
bssS'8 TeV (NLL)'
p136
(dp137
g59
g9
(g10
g11
Ntp138
Rp139
(F67.473
g14
I00
tp140
bsg17
g9
(g10
g11
Ntp141
Rp142
(F12.25
g14
I00
tp143
bsg66
g9
(g10
g11
Ntp144
Rp145
(F1041.25
g14
I00
tp146
bsg73
g9
(g10
g11
Ntp147
Rp148
(F22.491
g14
I00
tp149
bsg77
g9
(g10
g11
Ntp150
Rp151
(F36.75
g14
I00
tp152
bsg97
g9
(g10
g11
Ntp153
Rp154
(F22.491
g14
I00
tp155
bsg81
g9
(g10
g11
Ntp156
Rp157
(F22.491
g14
I00
tp158
bsg85
g9
(g10
g11
Ntp159
Rp160
(F44.982
g14
I00
tp161
bsg89
g9
(g10
g11
Ntp162
Rp163
(F22.491
g14
I00
tp164
bsg93
g9
(g10
g11
Ntp165
Rp166
(F23.023875000000004
g14
I00
tp167
bsg25
g9
(g10
g11
Ntp168
Rp169
(F22.491
g14
I00
tp170
bsssS'lhe7file'
p171
S'/tmp/tmpjtPc85/fort_7.68'
p172
sS'lhe8file'
p173
S'/tmp/tmpjtPc85/fort_8.68'
p174
sS'lhefile'
p175
S'/tmp/tmpjtPc85/fort_8.68'
p176
sS'Wdic'
p177
(dp178
g6
(dp179
g8
g9
(g10
g11
Ntp180
Rp181
(F3.53
g14
I00
tp182
bsg17
g9
(g10
g11
Ntp183
Rp184
(F0.0
g14
I00
tp185
bsg21
g9
(g10
g11
Ntp186
Rp187
(F10.839176470588235
g14
I00
tp188
bsg25
g9
(g10
g11
Ntp189
Rp190
(F0.0
g14
I00
tp191
bsg29
g9
(g10
g11
Ntp192
Rp193
(F10.59
g14
I00
tp194
bsg33
g9
(g10
g11
Ntp195
Rp196
(F7.06
g14
I00
tp197
bsg37
g9
(g10
g11
Ntp198
Rp199
(F10.59
g14
I00
tp200
bsg41
g9
(g10
g11
Ntp201
Rp202
(F10.59
g14
I00
tp203
bsg45
g9
(g10
g11
Ntp204
Rp205
(F10.59
g14
I00
tp206
bsg49
g9
(g10
g11
Ntp207
Rp208
(F21.18
g14
I00
tp209
bsg53
g9
(g10
g11
Ntp210
Rp211
(F21.18
g14
I00
tp212
bssg57
(dp213
g59
g9
(g10
g11
Ntp214
Rp215
(F12.25
g14
I00
tp216
bsg17
g9
(g10
g11
Ntp217
Rp218
(F12.25
g14
I00
tp219
bsg66
g9
(g10
g11
Ntp220
Rp221
(F12.25
g14
I00
tp222
bsg25
g9
(g10
g11
Ntp223
Rp224
(F12.25
g14
I00
tp225
bsg73
g9
(g10
g11
Ntp226
Rp227
(F12.25
g14
I00
tp228
bsg77
g9
(g10
g11
Ntp229
Rp230
(F12.25
g14
I00
tp231
bsg81
g9
(g10
g11
Ntp232
Rp233
(F12.25
g14
I00
tp234
bsg85
g9
(g10
g11
Ntp235
Rp236
(F12.25
g14
I00
tp237
bsg89
g9
(g10
g11
Ntp238
Rp239
(F12.25
g14
I00
tp240
bsg93
g9
(g10
g11
Ntp241
Rp242
(F12.25
g14
I00
tp243
bsg97
g9
(g10
g11
Ntp244
Rp245
(F12.25
g14
I00
tp246
bssg101
(dp247
g59
g9
(g10
g11
Ntp248
Rp249
(F6.661110000000001
g14
I00
tp250
bsg17
g9
(g10
g11
Ntp251
Rp252
(F0.0
g14
I00
tp253
bsg66
g9
(g10
g11
Ntp254
Rp255
(F10.839176470588235
g14
I00
tp256
bsg73
g9
(g10
g11
Ntp257
Rp258
(F19.983330000000002
g14
I00
tp259
bsg77
g9
(g10
g11
Ntp260
Rp261
(F7.06
g14
I00
tp262
bsg97
g9
(g10
g11
Ntp263
Rp264
(F39.966660000000005
g14
I00
tp265
bsg81
g9
(g10
g11
Ntp266
Rp267
(F19.983330000000002
g14
I00
tp268
bsg85
g9
(g10
g11
Ntp269
Rp270
(F19.983330000000002
g14
I00
tp271
bsg89
g9
(g10
g11
Ntp272
Rp273
(F19.983330000000002
g14
I00
tp274
bsg93
g9
(g10
g11
Ntp275
Rp276
(F41.364540000000005
g14
I00
tp277
bsg25
g9
(g10
g11
Ntp278
Rp279
(F0.0
g14
I00
tp280
bssg136
(dp281
g59
g9
(g10
g11
Ntp282
Rp283
(F22.491
g14
I00
tp284
bsg17
g9
(g10
g11
Ntp285
Rp286
(F12.25
g14
I00
tp287
bsg66
g9
(g10
g11
Ntp288
Rp289
(F12.25
g14
I00
tp290
bsg73
g9
(g10
g11
Ntp291
Rp292
(F22.491
g14
I00
tp293
bsg77
g9
(g10
g11
Ntp294
Rp295
(F12.25
g14
I00
tp296
bsg97
g9
(g10
g11
Ntp297
Rp298
(F22.491
g14
I00
tp299
bsg81
g9
(g10
g11
Ntp300
Rp301
(F22.491
g14
I00
tp302
bsg85
g9
(g10
g11
Ntp303
Rp304
(F22.491
g14
I00
tp305
bsg89
g9
(g10
g11
Ntp306
Rp307
(F22.491
g14
I00
tp308
bsg93
g9
(g10
g11
Ntp309
Rp310
(F23.023875000000004
g14
I00
tp311
bsg25
g9
(g10
g11
Ntp312
Rp313
(F22.491
g14
I00
tp314
bsssS'CMdic'
p315
(dp316
g6
g9
(g10
g11
Ntp317
Rp318
(F7.0
(dp319
S'TeV'
p320
I1
sI00
tp321
bsg57
g9
(g10
g11
Ntp322
Rp323
(F8.0
g319
I00
tp324
bsg101
g9
(g10
g11
Ntp325
Rp326
(F7.0
g319
I00
tp327
bsg136
g9
(g10
g11
Ntp328
Rp329
(F8.0
g319
I00
tp330
bsssb.