(iTheory.SMSDataObjects
TopologyList
p0
(dp1
S'topos'
p2
(lp3
(iTheory.SMSDataObjects
GTop
p4
(dp5
S'ElList'
p6
(lp7
(iTheory.SMSDataObjects
EElement
p8
(dp9
S'B'
p10
(lp11
(iTheory.SMSDataObjects
BElement
p12
(dp13
S'particles'
p14
(lp15
sS'masses'
p16
(lp17
ccopy_reg
_reconstructor
p18
(cunum
Unum
p19
c__builtin__
object
p20
Ntp21
Rp22
(F375.0
(dp23
S'GeV'
p24
I1
sI00
tp25
basS'momID'
p26
I1000022
sba(iTheory.SMSDataObjects
BElement
p27
(dp28
g14
(lp29
(lp30
S'jet'
p31
aasg16
(lp32
g18
(g19
g20
Ntp33
Rp34
(F600.0
(dp35
g24
I1
sI00
tp36
bag18
(g19
g20
Ntp37
Rp38
(F375.0
(dp39
g24
I1
sI00
tp40
basg26
I-1000001
sbasS'weight'
p41
(dp42
S'7 TeV (LO)'
p43
g18
(g19
g20
Ntp44
Rp45
(F7.2176849999999995
(dp46
S'fb'
p47
I1
sI00
tp48
bsS'8 TeV (LO)'
p49
g18
(g19
g20
Ntp50
Rp51
(F12.452770000000001
g46
I00
tp52
bsS'7 TeV (NLL)'
p53
g18
(g19
g20
Ntp54
Rp55
(F7.2176849999999995
g46
I00
tp56
bsS'8 TeV (NLL)'
p57
g18
(g19
g20
Ntp58
Rp59
(F12.452770000000001
g46
I00
tp60
bssbasS'vertnumb'
p61
(lp62
I1
aI2
asS'vertparts'
p63
(lp64
(lp65
I0
aa(lp66
I1
aI0
aasba(iTheory.SMSDataObjects
GTop
p67
(dp68
g6
(lp69
(iTheory.SMSDataObjects
EElement
p70
(dp71
g10
(lp72
(iTheory.SMSDataObjects
BElement
p73
(dp74
g14
(lp75
(lp76
g31
aasg16
(lp77
g18
(g19
g20
Ntp78
Rp79
(F600.0
(dp80
g24
I1
sI00
tp81
bag18
(g19
g20
Ntp82
Rp83
(F375.0
(dp84
g24
I1
sI00
tp85
basg26
I-1000001
sba(iTheory.SMSDataObjects
BElement
p86
(dp87
g14
(lp88
(lp89
g31
aasg16
(lp90
g18
(g19
g20
Ntp91
Rp92
(F600.0
(dp93
g24
I1
sI00
tp94
bag18
(g19
g20
Ntp95
Rp96
(F375.0
(dp97
g24
I1
sI00
tp98
basg26
I1000001
sbasg41
(dp99
g43
g18
(g19
g20
Ntp100
Rp101
(F54.001475
g46
I00
tp102
bsg49
g18
(g19
g20
Ntp103
Rp104
(F103.73487
g46
I00
tp105
bsg53
g18
(g19
g20
Ntp106
Rp107
(F101.90078332500002
g46
I00
tp108
bsg57
g18
(g19
g20
Ntp109
Rp110
(F190.45722132000003
g46
I00
tp111
bssba(iTheory.SMSDataObjects
EElement
p112
(dp113
g10
(lp114
(iTheory.SMSDataObjects
BElement
p115
(dp116
g14
(lp117
(lp118
S'b'
p119
aasg16
(lp120
g18
(g19
g20
Ntp121
Rp122
(F600.0
(dp123
g24
I1
sI00
tp124
bag18
(g19
g20
Ntp125
Rp126
(F375.0
(dp127
g24
I1
sI00
tp128
basg26
I-1000005
sba(iTheory.SMSDataObjects
BElement
p129
(dp130
g14
(lp131
(lp132
g119
aasg16
(lp133
g18
(g19
g20
Ntp134
Rp135
(F600.0
(dp136
g24
I1
sI00
tp137
bag18
(g19
g20
Ntp138
Rp139
(F375.0
(dp140
g24
I1
sI00
tp141
basg26
I1000005
sbasg41
(dp142
g43
g18
(g19
g20
Ntp143
Rp144
(F13.243665
g46
I00
tp145
bsg49
g18
(g19
g20
Ntp146
Rp147
(F26.39586
g46
I00
tp148
bsg53
g18
(g19
g20
Ntp149
Rp150
(F25.864877745000005
g46
I00
tp151
bsg57
g18
(g19
g20
Ntp152
Rp153
(F49.61101887000001
g46
I00
tp154
bssbasg61
(lp155
I2
aI2
asg63
(lp156
(lp157
I1
aI0
aa(lp158
I1
aI0
aasba(iTheory.SMSDataObjects
GTop
p159
(dp160
g6
(lp161
(iTheory.SMSDataObjects
EElement
p162
(dp163
g10
(lp164
(iTheory.SMSDataObjects
BElement
p165
(dp166
g14
(lp167
sg16
(lp168
g18
(g19
g20
Ntp169
Rp170
(F375.0
(dp171
g24
I1
sI00
tp172
basg26
I1000022
sba(iTheory.SMSDataObjects
BElement
p173
(dp174
g14
(lp175
sg16
(lp176
g18
(g19
g20
Ntp177
Rp178
(F375.0
(dp179
g24
I1
sI00
tp180
basg26
I1000022
sbasg41
(dp181
g43
g18
(g19
g20
Ntp182
Rp183
(F0.187375
(dp184
S'fb'
p185
I1
sI00
tp186
bsg49
g18
(g19
g20
Ntp187
Rp188
(F0.22928
(dp189
g185
I1
sI00
tp190
bsg53
g18
(g19
g20
Ntp191
Rp192
(F0.187375
(dp193
g185
I1
sI00
tp194
bsg57
g18
(g19
g20
Ntp195
Rp196
(F0.22928
(dp197
g185
I1
sI00
tp198
bssbasg61
(lp199
I1
aI1
asg63
(lp200
(lp201
I0
aa(lp202
I0
aasbasb.