(iTheory.SMSDataObjects
TopologyList
p0
(dp1
S'topos'
p2
(lp3
(iTheory.SMSDataObjects
GTop
p4
(dp5
S'ElList'
p6
(lp7
(iTheory.SMSDataObjects
EElement
p8
(dp9
S'B'
p10
(lp11
(iTheory.SMSDataObjects
BElement
p12
(dp13
S'particles'
p14
(lp15
(lp16
S'jet'
p17
aasS'masses'
p18
(lp19
ccopy_reg
_reconstructor
p20
(cunum
Unum
p21
c__builtin__
object
p22
Ntp23
Rp24
(F600.0
(dp25
S'GeV'
p26
I1
sI00
tp27
bag20
(g21
g22
Ntp28
Rp29
(F375.0
(dp30
g26
I1
sI00
tp31
basS'momID'
p32
I-1000001
sba(iTheory.SMSDataObjects
BElement
p33
(dp34
g14
(lp35
(lp36
g17
aasg18
(lp37
g20
(g21
g22
Ntp38
Rp39
(F600.0
(dp40
g26
I1
sI00
tp41
bag20
(g21
g22
Ntp42
Rp43
(F375.0
(dp44
g26
I1
sI00
tp45
basg32
I1000001
sbasS'weight'
p46
(dp47
S'7 TeV (LO)'
p48
g20
(g21
g22
Ntp49
Rp50
(F84.72
(dp51
S'fb'
p52
I1
sI00
tp53
bsS'8 TeV (LO)'
p54
g20
(g21
g22
Ntp55
Rp56
(F122.5
g51
I00
tp57
bsS'7 TeV (NLL)'
p58
g20
(g21
g22
Ntp59
Rp60
(F159.86664
g51
I00
tp61
bsS'8 TeV (NLL)'
p62
g20
(g21
g22
Ntp63
Rp64
(F224.90999999999997
g51
I00
tp65
bssba(iTheory.SMSDataObjects
EElement
p66
(dp67
g10
(lp68
(iTheory.SMSDataObjects
BElement
p69
(dp70
g14
(lp71
(lp72
S'b'
p73
aasg18
(lp74
g20
(g21
g22
Ntp75
Rp76
(F600.0
(dp77
g26
I1
sI00
tp78
bag20
(g21
g22
Ntp79
Rp80
(F375.0
(dp81
g26
I1
sI00
tp82
basg32
I-2000005
sba(iTheory.SMSDataObjects
BElement
p83
(dp84
g14
(lp85
(lp86
g73
aasg18
(lp87
g20
(g21
g22
Ntp88
Rp89
(F600.0
(dp90
g26
I1
sI00
tp91
bag20
(g21
g22
Ntp92
Rp93
(F375.0
(dp94
g26
I1
sI00
tp95
basg32
I2000005
sbasg46
(dp96
g48
g20
(g21
g22
Ntp97
Rp98
(F21.18
(dp99
S'fb'
p100
I1
sI00
tp101
bsg54
g20
(g21
g22
Ntp102
Rp103
(F12.25
(dp104
g100
I1
sI00
tp105
bsg58
g20
(g21
g22
Ntp106
Rp107
(F41.364540000000005
(dp108
g100
I1
sI00
tp109
bsg62
g20
(g21
g22
Ntp110
Rp111
(F23.023875000000004
(dp112
g100
I1
sI00
tp113
bssbasS'vertnumb'
p114
(lp115
I2
aI2
asS'vertparts'
p116
(lp117
(lp118
I1
aI0
aa(lp119
I1
aI0
aasba(iTheory.SMSDataObjects
GTop
p120
(dp121
g6
(lp122
(iTheory.SMSDataObjects
EElement
p123
(dp124
g10
(lp125
(iTheory.SMSDataObjects
BElement
p126
(dp127
g14
(lp128
(lp129
g17
aasg18
(lp130
g20
(g21
g22
Ntp131
Rp132
(F600.0
(dp133
g26
I1
sI00
tp134
bag20
(g21
g22
Ntp135
Rp136
(F375.0
(dp137
g26
I1
sI00
tp138
basg32
I1000001
sba(iTheory.SMSDataObjects
BElement
p139
(dp140
g14
(lp141
sg18
(lp142
g20
(g21
g22
Ntp143
Rp144
(F375.0
(dp145
g26
I1
sI00
tp146
basg32
I1000022
sbasg46
(dp147
g48
g20
(g21
g22
Ntp148
Rp149
(F21.18
g51
I00
tp150
bsg54
g20
(g21
g22
Ntp151
Rp152
(F49.0
g51
I00
tp153
bsg58
g20
(g21
g22
Ntp154
Rp155
(F21.18
g51
I00
tp156
bsg62
g20
(g21
g22
Ntp157
Rp158
(F49.0
g51
I00
tp159
bssbasg114
(lp160
I2
aI1
asg116
(lp161
(lp162
I1
aI0
aa(lp163
I0
aasba(iTheory.SMSDataObjects
GTop
p164
(dp165
g6
(lp166
(iTheory.SMSDataObjects
EElement
p167
(dp168
g10
(lp169
(iTheory.SMSDataObjects
BElement
p170
(dp171
g14
(lp172
sg18
(lp173
g20
(g21
g22
Ntp174
Rp175
(F375.0
(dp176
g26
I1
sI00
tp177
basg32
I1000022
sba(iTheory.SMSDataObjects
BElement
p178
(dp179
g14
(lp180
sg18
(lp181
g20
(g21
g22
Ntp182
Rp183
(F375.0
(dp184
g26
I1
sI00
tp185
basg32
I1000022
sbasg46
(dp186
g48
g20
(g21
g22
Ntp187
Rp188
(F921.33
(dp189
g100
I1
sI00
tp190
bsg54
g20
(g21
g22
Ntp191
Rp192
(F1041.25
(dp193
g100
I1
sI00
tp194
bsg58
g20
(g21
g22
Ntp195
Rp196
(F921.33
(dp197
g100
I1
sI00
tp198
bsg62
g20
(g21
g22
Ntp199
Rp200
(F1041.25
(dp201
g100
I1
sI00
tp202
bssbasg114
(lp203
I1
aI1
asg116
(lp204
(lp205
I0
aa(lp206
I0
aasbasb.